; ModuleID = '7/926.c'
source_filename = "7/926.c"
target datalayout = "e-m:e-p270:32:32-p271:32:32-p272:64:64-i64:64-f80:128-n8:16:32:64-S128"
target triple = "x86_64-pc-linux-gnu"

@.str = private unnamed_addr constant [7 x i8] c"%s%s%s\00", align 1
@.str.1 = private unnamed_addr constant [3 x i8] c"%c\00", align 1
@.str.2 = private unnamed_addr constant [3 x i8] c"%s\00", align 1

; Function Attrs: noinline nounwind uwtable
define dso_local i32 @main() #0 {
  %1 = alloca i32, align 4
  %2 = alloca i32, align 4
  %3 = alloca i32, align 4
  %4 = alloca i32, align 4
  %5 = alloca i32, align 4
  %6 = alloca i32, align 4
  %7 = alloca i32, align 4
  %8 = alloca i32, align 4
  %9 = alloca [260 x i8], align 16
  %10 = alloca [260 x i8], align 16
  %11 = alloca [260 x i8], align 16
  %12 = alloca [260 x i8], align 16
  store i32 0, i32* %1, align 4
  store i32 0, i32* %8, align 4
  %13 = getelementptr inbounds [260 x i8], [260 x i8]* %9, i64 0, i64 0
  %14 = getelementptr inbounds [260 x i8], [260 x i8]* %10, i64 0, i64 0
  %15 = getelementptr inbounds [260 x i8], [260 x i8]* %11, i64 0, i64 0
  %16 = call i32 (i8*, ...) @__isoc99_scanf(i8* getelementptr inbounds ([7 x i8], [7 x i8]* @.str, i64 0, i64 0), i8* %13, i8* %14, i8* %15)
  %17 = getelementptr inbounds [260 x i8], [260 x i8]* %9, i64 0, i64 0
  %18 = call i64 @strlen(i8* %17) #3
  %19 = trunc i64 %18 to i32
  store i32 %19, i32* %3, align 4
  %20 = getelementptr inbounds [260 x i8], [260 x i8]* %10, i64 0, i64 0
  %21 = call i64 @strlen(i8* %20) #3
  %22 = trunc i64 %21 to i32
  store i32 %22, i32* %4, align 4
  %23 = getelementptr inbounds [260 x i8], [260 x i8]* %11, i64 0, i64 0
  %24 = call i64 @strlen(i8* %23) #3
  %25 = trunc i64 %24 to i32
  store i32 %25, i32* %7, align 4
  store i32 0, i32* %2, align 4
  br label %26

26:                                               ; preds = %108, %0
  %27 = load i32, i32* %2, align 4
  %28 = load i32, i32* %3, align 4
  %29 = icmp slt i32 %27, %28
  br i1 %29, label %30, label %111

30:                                               ; preds = %26
  %31 = load i32, i32* %2, align 4
  %32 = sext i32 %31 to i64
  %33 = getelementptr inbounds [260 x i8], [260 x i8]* %9, i64 0, i64 %32
  %34 = load i8, i8* %33, align 1
  %35 = sext i8 %34 to i32
  %36 = getelementptr inbounds [260 x i8], [260 x i8]* %10, i64 0, i64 0
  %37 = load i8, i8* %36, align 16
  %38 = sext i8 %37 to i32
  %39 = icmp eq i32 %35, %38
  br i1 %39, label %40, label %107

40:                                               ; preds = %30
  store i32 0, i32* %5, align 4
  br label %41

41:                                               ; preds = %55, %40
  %42 = load i32, i32* %5, align 4
  %43 = load i32, i32* %4, align 4
  %44 = icmp slt i32 %42, %43
  br i1 %44, label %45, label %58

45:                                               ; preds = %41
  %46 = load i32, i32* %5, align 4
  %47 = load i32, i32* %2, align 4
  %48 = add nsw i32 %46, %47
  %49 = sext i32 %48 to i64
  %50 = getelementptr inbounds [260 x i8], [260 x i8]* %9, i64 0, i64 %49
  %51 = load i8, i8* %50, align 1
  %52 = load i32, i32* %5, align 4
  %53 = sext i32 %52 to i64
  %54 = getelementptr inbounds [260 x i8], [260 x i8]* %12, i64 0, i64 %53
  store i8 %51, i8* %54, align 1
  br label %55

55:                                               ; preds = %45
  %56 = load i32, i32* %5, align 4
  %57 = add nsw i32 %56, 1
  store i32 %57, i32* %5, align 4
  br label %41

58:                                               ; preds = %41
  %59 = load i32, i32* %5, align 4
  %60 = sext i32 %59 to i64
  %61 = getelementptr inbounds [260 x i8], [260 x i8]* %12, i64 0, i64 %60
  store i8 0, i8* %61, align 1
  %62 = getelementptr inbounds [260 x i8], [260 x i8]* %10, i64 0, i64 0
  %63 = getelementptr inbounds [260 x i8], [260 x i8]* %12, i64 0, i64 0
  %64 = call i32 @strcmp(i8* %62, i8* %63) #3
  %65 = icmp eq i32 %64, 0
  br i1 %65, label %66, label %106

66:                                               ; preds = %58
  store i32 0, i32* %6, align 4
  br label %67

67:                                               ; preds = %78, %66
  %68 = load i32, i32* %6, align 4
  %69 = load i32, i32* %2, align 4
  %70 = icmp slt i32 %68, %69
  br i1 %70, label %71, label %81

71:                                               ; preds = %67
  %72 = load i32, i32* %6, align 4
  %73 = sext i32 %72 to i64
  %74 = getelementptr inbounds [260 x i8], [260 x i8]* %9, i64 0, i64 %73
  %75 = load i8, i8* %74, align 1
  %76 = sext i8 %75 to i32
  %77 = call i32 (i8*, ...) @printf(i8* getelementptr inbounds ([3 x i8], [3 x i8]* @.str.1, i64 0, i64 0), i32 %76)
  br label %78

78:                                               ; preds = %71
  %79 = load i32, i32* %6, align 4
  %80 = add nsw i32 %79, 1
  store i32 %80, i32* %6, align 4
  br label %67

81:                                               ; preds = %67
  %82 = getelementptr inbounds [260 x i8], [260 x i8]* %11, i64 0, i64 0
  %83 = call i32 (i8*, ...) @printf(i8* getelementptr inbounds ([3 x i8], [3 x i8]* @.str.2, i64 0, i64 0), i8* %82)
  %84 = load i32, i32* %2, align 4
  %85 = load i32, i32* %7, align 4
  %86 = add nsw i32 %84, %85
  store i32 %86, i32* %6, align 4
  br label %87

87:                                               ; preds = %102, %81
  %88 = load i32, i32* %6, align 4
  %89 = load i32, i32* %3, align 4
  %90 = load i32, i32* %4, align 4
  %91 = sub nsw i32 %89, %90
  %92 = load i32, i32* %7, align 4
  %93 = add nsw i32 %91, %92
  %94 = icmp slt i32 %88, %93
  br i1 %94, label %95, label %105

95:                                               ; preds = %87
  %96 = load i32, i32* %6, align 4
  %97 = sext i32 %96 to i64
  %98 = getelementptr inbounds [260 x i8], [260 x i8]* %9, i64 0, i64 %97
  %99 = load i8, i8* %98, align 1
  %100 = sext i8 %99 to i32
  %101 = call i32 (i8*, ...) @printf(i8* getelementptr inbounds ([3 x i8], [3 x i8]* @.str.1, i64 0, i64 0), i32 %100)
  br label %102

102:                                              ; preds = %95
  %103 = load i32, i32* %6, align 4
  %104 = add nsw i32 %103, 1
  store i32 %104, i32* %6, align 4
  br label %87

105:                                              ; preds = %87
  store i32 1, i32* %8, align 4
  br label %111

106:                                              ; preds = %58
  br label %107

107:                                              ; preds = %106, %30
  br label %108

108:                                              ; preds = %107
  %109 = load i32, i32* %2, align 4
  %110 = add nsw i32 %109, 1
  store i32 %110, i32* %2, align 4
  br label %26

111:                                              ; preds = %105, %26
  %112 = load i32, i32* %8, align 4
  %113 = icmp eq i32 %112, 0
  br i1 %113, label %114, label %117

114:                                              ; preds = %111
  %115 = getelementptr inbounds [260 x i8], [260 x i8]* %9, i64 0, i64 0
  %116 = call i32 (i8*, ...) @printf(i8* getelementptr inbounds ([3 x i8], [3 x i8]* @.str.2, i64 0, i64 0), i8* %115)
  br label %117

117:                                              ; preds = %114, %111
  ret i32 0
}

declare dso_local i32 @__isoc99_scanf(i8*, ...) #1

; Function Attrs: nounwind readonly
declare dso_local i64 @strlen(i8*) #2

; Function Attrs: nounwind readonly
declare dso_local i32 @strcmp(i8*, i8*) #2

declare dso_local i32 @printf(i8*, ...) #1


!llvm.module.flags = !{!0}
!llvm.ident = !{!1}

!0 = !{i32 1, !"wchar_size", i32 4}
!1 = !{!"clang version 10.0.0-4ubuntu1 "}
